ccopy_reg
_reconstructor
p0
(cdedupe.datamodel
DataModel
p1
c__builtin__
dict
p2
(dp3
S'fields'
p4
(lp5
g0
(cdedupe.fieldclasses
CustomType
p6
c__builtin__
object
p7
Ntp8
Rp9
(dp10
S'name'
p11
S'(price: Custom, priceComp)'
p12
sS'comparator'
p13
c__main__
priceComp
p14
sS'weight'
p15
F0.0013659721007570624
sS'field'
p16
S'price'
p17
sS'has_missing'
p18
I01
sS'predicates'
p19
(lp20
sbag0
(cdedupe.fieldclasses
StringType
p21
g7
Ntp22
Rp23
(dp24
g19
(lp25
g0
(cdedupe.predicates
SimplePredicate
p26
g7
Ntp27
Rp28
(dp29
S'__name__'
p30
S'(wholeFieldPredicate, title)'
p31
sS'func'
p32
cdedupe.predicates
wholeFieldPredicate
p33
sg16
S'title'
p34
sbag0
(g26
g7
Ntp35
Rp36
(dp37
g30
S'(tokenFieldPredicate, title)'
p38
sg32
cdedupe.predicates
tokenFieldPredicate
p39
sg16
g34
sbag0
(g26
g7
Ntp40
Rp41
(dp42
g30
S'(firstTokenPredicate, title)'
p43
sg32
cdedupe.predicates
firstTokenPredicate
p44
sg16
g34
sbag0
(g26
g7
Ntp45
Rp46
(dp47
g30
S'(commonIntegerPredicate, title)'
p48
sg32
cdedupe.predicates
commonIntegerPredicate
p49
sg16
g34
sbag0
(g26
g7
Ntp50
Rp51
(dp52
g30
S'(nearIntegersPredicate, title)'
p53
sg32
cdedupe.predicates
nearIntegersPredicate
p54
sg16
g34
sbag0
(g26
g7
Ntp55
Rp56
(dp57
g30
S'(firstIntegerPredicate, title)'
p58
sg32
cdedupe.predicates
firstIntegerPredicate
p59
sg16
g34
sbag0
(g26
g7
Ntp60
Rp61
(dp62
g30
S'(sameThreeCharStartPredicate, title)'
p63
sg32
cdedupe.predicates
sameThreeCharStartPredicate
p64
sg16
g34
sbag0
(g26
g7
Ntp65
Rp66
(dp67
g30
S'(sameFiveCharStartPredicate, title)'
p68
sg32
cdedupe.predicates
sameFiveCharStartPredicate
p69
sg16
g34
sbag0
(g26
g7
Ntp70
Rp71
(dp72
g30
S'(sameSevenCharStartPredicate, title)'
p73
sg32
cdedupe.predicates
sameSevenCharStartPredicate
p74
sg16
g34
sbag0
(g26
g7
Ntp75
Rp76
(dp77
g30
S'(commonFourGram, title)'
p78
sg32
cdedupe.predicates
commonFourGram
p79
sg16
g34
sbag0
(g26
g7
Ntp80
Rp81
(dp82
g30
S'(commonSixGram, title)'
p83
sg32
cdedupe.predicates
commonSixGram
p84
sg16
g34
sbag0
(cdedupe.predicates
TfidfPredicate
p85
g7
Ntp86
Rp87
(dp88
S'threshold'
p89
F0.2
sg30
S'(0.2, title)'
p90
sg16
g34
sbag0
(g85
g7
Ntp91
Rp92
(dp93
g89
F0.4
sg30
S'(0.4, title)'
p94
sg16
g34
sbag0
(g85
g7
Ntp95
Rp96
(dp97
g89
F0.6
sg30
S'(0.6, title)'
p98
sg16
g34
sbag0
(g85
g7
Ntp99
Rp100
(dp101
g89
F0.8
sg30
S'(0.8, title)'
p102
sg16
g34
sbasg16
g34
sg11
S'(title: String)'
p103
sg15
F-5.077232360839844
sg18
I00
sbag0
(g21
g7
Ntp104
Rp105
(dp106
g19
(lp107
g0
(g26
g7
Ntp108
Rp109
(dp110
g30
S'(wholeFieldPredicate, manufacturer)'
p111
sg32
g33
sg16
S'manufacturer'
p112
sbag0
(g26
g7
Ntp113
Rp114
(dp115
g30
S'(tokenFieldPredicate, manufacturer)'
p116
sg32
g39
sg16
g112
sbag0
(g26
g7
Ntp117
Rp118
(dp119
g30
S'(firstTokenPredicate, manufacturer)'
p120
sg32
g44
sg16
g112
sbag0
(g26
g7
Ntp121
Rp122
(dp123
g30
S'(commonIntegerPredicate, manufacturer)'
p124
sg32
g49
sg16
g112
sbag0
(g26
g7
Ntp125
Rp126
(dp127
g30
S'(nearIntegersPredicate, manufacturer)'
p128
sg32
g54
sg16
g112
sbag0
(g26
g7
Ntp129
Rp130
(dp131
g30
S'(firstIntegerPredicate, manufacturer)'
p132
sg32
g59
sg16
g112
sbag0
(g26
g7
Ntp133
Rp134
(dp135
g30
S'(sameThreeCharStartPredicate, manufacturer)'
p136
sg32
g64
sg16
g112
sbag0
(g26
g7
Ntp137
Rp138
(dp139
g30
S'(sameFiveCharStartPredicate, manufacturer)'
p140
sg32
g69
sg16
g112
sbag0
(g26
g7
Ntp141
Rp142
(dp143
g30
S'(sameSevenCharStartPredicate, manufacturer)'
p144
sg32
g74
sg16
g112
sbag0
(g26
g7
Ntp145
Rp146
(dp147
g30
S'(commonFourGram, manufacturer)'
p148
sg32
g79
sg16
g112
sbag0
(g26
g7
Ntp149
Rp150
(dp151
g30
S'(commonSixGram, manufacturer)'
p152
sg32
g84
sg16
g112
sbag0
(g85
g7
Ntp153
Rp154
(dp155
g89
F0.2
sg30
S'(0.2, manufacturer)'
p156
sg16
g112
sbag0
(g85
g7
Ntp157
Rp158
(dp159
g89
F0.4
sg30
S'(0.4, manufacturer)'
p160
sg16
g112
sbag0
(g85
g7
Ntp161
Rp162
(dp163
g89
F0.6
sg30
S'(0.6, manufacturer)'
p164
sg16
g112
sbag0
(g85
g7
Ntp165
Rp166
(dp167
g89
F0.8
sg30
S'(0.8, manufacturer)'
p168
sg16
g112
sbasg16
g112
sg11
S'(manufacturer: String)'
p169
sg15
F-0.6135636568069458
sg18
I01
sbag0
(cdedupe.fieldclasses
MissingDataType
p170
g7
Ntp171
Rp172
(dp173
g18
I00
sg11
S'((manufacturer: String): Not Missing)'
p174
sg15
F0.754938542842865
sbag0
(g170
g7
Ntp175
Rp176
(dp177
g18
I00
sg11
S'((price: Custom, priceComp): Not Missing)'
p178
sg15
F0.1465616375207901
sbasS'bias'
p179
F5.081307417062738
stp180
Rp181
(dp182
S'total_fields'
p183
I5
sb.(lp0
ccopy_reg
_reconstructor
p1
(cdedupe.predicates
CompoundPredicate
p2
c__builtin__
object
p3
Ntp4
Rp5
(dp6
S'predicates'
p7
(g1
(cdedupe.predicates
SimplePredicate
p8
g3
Ntp9
Rp10
(dp11
S'__name__'
p12
S'(sameFiveCharStartPredicate, title)'
p13
sS'func'
p14
cdedupe.predicates
sameFiveCharStartPredicate
p15
sS'field'
p16
S'title'
p17
sbg1
(cdedupe.predicates
TfidfPredicate
p18
g3
Ntp19
Rp20
(dp21
S'threshold'
p22
F0.8
sg12
S'(0.8, title)'
p23
sg16
g17
sbtp24
sg12
V(SimplePredicate: (sameFiveCharStartPredicate, title), TfidfPredicate: (0.8, title))
p25
sbag1
(g2
g3
Ntp26
Rp27
(dp28
g7
(g1
(g8
g3
Ntp29
Rp30
(dp31
g12
S'(sameSevenCharStartPredicate, title)'
p32
sg14
cdedupe.predicates
sameSevenCharStartPredicate
p33
sg16
g17
sbg1
(g18
g3
Ntp34
Rp35
(dp36
g22
F0.6
sg12
S'(0.6, title)'
p37
sg16
g17
sbtp38
sg12
V(SimplePredicate: (sameSevenCharStartPredicate, title), TfidfPredicate: (0.6, title))
p39
sbag1
(g2
g3
Ntp40
Rp41
(dp42
g7
(g1
(g18
g3
Ntp43
Rp44
(dp45
g22
F0.4
sg12
S'(0.4, title)'
p46
sg16
g17
sbg1
(g8
g3
Ntp47
Rp48
(dp49
g12
S'(wholeFieldPredicate, manufacturer)'
p50
sg14
cdedupe.predicates
wholeFieldPredicate
p51
sg16
S'manufacturer'
p52
sbtp53
sg12
V(TfidfPredicate: (0.4, title), SimplePredicate: (wholeFieldPredicate, manufacturer))
p54
sba.(dp0
S'title'
p1
c__builtin__
set
p2
((lp3
S'software'
p4
atp5
Rp6
sS'manufacturer'
p7
g2
((lp8
tp9
Rp10
s.